; ModuleID = '41/1059.cpp'
source_filename = "41/1059.cpp"
target datalayout = "e-m:e-p270:32:32-p271:32:32-p272:64:64-i64:64-f80:128-n8:16:32:64-S128"
target triple = "x86_64-pc-linux-gnu"

%"class.std::ios_base::Init" = type { i8 }
%"class.std::basic_ostream" = type { i32 (...)**, %"class.std::basic_ios" }
%"class.std::basic_ios" = type { %"class.std::ios_base", %"class.std::basic_ostream"*, i8, i8, %"class.std::basic_streambuf"*, %"class.std::ctype"*, %"class.std::num_put"*, %"class.std::num_get"* }
%"class.std::ios_base" = type { i32 (...)**, i64, i64, i32, i32, i32, %"struct.std::ios_base::_Callback_list"*, %"struct.std::ios_base::_Words", [8 x %"struct.std::ios_base::_Words"], i32, %"struct.std::ios_base::_Words"*, %"class.std::locale" }
%"struct.std::ios_base::_Callback_list" = type { %"struct.std::ios_base::_Callback_list"*, void (i32, %"class.std::ios_base"*, i32)*, i32, i32 }
%"struct.std::ios_base::_Words" = type { i8*, i64 }
%"class.std::locale" = type { %"class.std::locale::_Impl"* }
%"class.std::locale::_Impl" = type { i32, %"class.std::locale::facet"**, i64, %"class.std::locale::facet"**, i8** }
%"class.std::locale::facet" = type <{ i32 (...)**, i32, [4 x i8] }>
%"class.std::basic_streambuf" = type { i32 (...)**, i8*, i8*, i8*, i8*, i8*, i8*, %"class.std::locale" }
%"class.std::ctype" = type <{ %"class.std::locale::facet.base", [4 x i8], %struct.__locale_struct*, i8, [7 x i8], i32*, i32*, i16*, i8, [256 x i8], [256 x i8], i8, [6 x i8] }>
%"class.std::locale::facet.base" = type <{ i32 (...)**, i32 }>
%struct.__locale_struct = type { [13 x %struct.__locale_data*], i16*, i32*, i32*, [13 x i8*] }
%struct.__locale_data = type opaque
%"class.std::num_put" = type { %"class.std::locale::facet.base", [4 x i8] }
%"class.std::num_get" = type { %"class.std::locale::facet.base", [4 x i8] }

@_ZStL8__ioinit = internal global %"class.std::ios_base::Init" zeroinitializer, align 1
@__dso_handle = external hidden global i8
@_ZSt4cout = external dso_local global %"class.std::basic_ostream", align 8
@.str = private unnamed_addr constant [2 x i8] c" \00", align 1
@llvm.global_ctors = appending global [1 x { i32, void ()*, i8* }] [{ i32, void ()*, i8* } { i32 65535, void ()* @_GLOBAL__sub_I_1059.cpp, i8* null }]

; Function Attrs: noinline uwtable
define internal void @__cxx_global_var_init() #0 section ".text.startup" {
  call void @_ZNSt8ios_base4InitC1Ev(%"class.std::ios_base::Init"* @_ZStL8__ioinit)
  %1 = call i32 @__cxa_atexit(void (i8*)* bitcast (void (%"class.std::ios_base::Init"*)* @_ZNSt8ios_base4InitD1Ev to void (i8*)*), i8* getelementptr inbounds (%"class.std::ios_base::Init", %"class.std::ios_base::Init"* @_ZStL8__ioinit, i32 0, i32 0), i8* @__dso_handle) #3
  ret void
}

declare dso_local void @_ZNSt8ios_base4InitC1Ev(%"class.std::ios_base::Init"*) unnamed_addr #1

; Function Attrs: nounwind
declare dso_local void @_ZNSt8ios_base4InitD1Ev(%"class.std::ios_base::Init"*) unnamed_addr #2

; Function Attrs: nounwind
declare dso_local i32 @__cxa_atexit(void (i8*)*, i8*, i8*) #3

; Function Attrs: noinline norecurse uwtable
define dso_local i32 @main() #4 {
  %1 = alloca i32, align 4
  %2 = alloca i32, align 4
  %3 = alloca i32, align 4
  %4 = alloca i32, align 4
  %5 = alloca i32, align 4
  %6 = alloca i32, align 4
  %7 = alloca i32, align 4
  %8 = alloca i32, align 4
  %9 = alloca i32, align 4
  %10 = alloca i32, align 4
  %11 = alloca i32, align 4
  store i32 0, i32* %1, align 4
  store i32 1, i32* %2, align 4
  br label %12

12:                                               ; preds = %157, %0
  %13 = load i32, i32* %2, align 4
  %14 = icmp sle i32 %13, 5
  br i1 %14, label %15, label %160

15:                                               ; preds = %12
  store i32 1, i32* %3, align 4
  br label %16

16:                                               ; preds = %153, %15
  %17 = load i32, i32* %3, align 4
  %18 = icmp sle i32 %17, 5
  br i1 %18, label %19, label %156

19:                                               ; preds = %16
  store i32 1, i32* %4, align 4
  br label %20

20:                                               ; preds = %149, %19
  %21 = load i32, i32* %4, align 4
  %22 = icmp sle i32 %21, 5
  br i1 %22, label %23, label %152

23:                                               ; preds = %20
  store i32 1, i32* %5, align 4
  br label %24

24:                                               ; preds = %145, %23
  %25 = load i32, i32* %5, align 4
  %26 = icmp sle i32 %25, 5
  br i1 %26, label %27, label %148

27:                                               ; preds = %24
  store i32 1, i32* %6, align 4
  br label %28

28:                                               ; preds = %141, %27
  %29 = load i32, i32* %6, align 4
  %30 = icmp sle i32 %29, 5
  br i1 %30, label %31, label %144

31:                                               ; preds = %28
  %32 = load i32, i32* %6, align 4
  %33 = icmp eq i32 %32, 1
  %34 = zext i1 %33 to i32
  store i32 %34, i32* %7, align 4
  %35 = load i32, i32* %3, align 4
  %36 = icmp eq i32 %35, 2
  %37 = zext i1 %36 to i32
  store i32 %37, i32* %8, align 4
  %38 = load i32, i32* %2, align 4
  %39 = icmp eq i32 %38, 5
  %40 = zext i1 %39 to i32
  store i32 %40, i32* %9, align 4
  %41 = load i32, i32* %4, align 4
  %42 = icmp ne i32 %41, 1
  %43 = zext i1 %42 to i32
  store i32 %43, i32* %10, align 4
  %44 = load i32, i32* %5, align 4
  %45 = icmp eq i32 %44, 1
  %46 = zext i1 %45 to i32
  store i32 %46, i32* %11, align 4
  %47 = load i32, i32* %2, align 4
  %48 = load i32, i32* %3, align 4
  %49 = icmp ne i32 %47, %48
  br i1 %49, label %50, label %140

50:                                               ; preds = %31
  %51 = load i32, i32* %2, align 4
  %52 = load i32, i32* %4, align 4
  %53 = icmp ne i32 %51, %52
  br i1 %53, label %54, label %140

54:                                               ; preds = %50
  %55 = load i32, i32* %2, align 4
  %56 = load i32, i32* %5, align 4
  %57 = icmp ne i32 %55, %56
  br i1 %57, label %58, label %140

58:                                               ; preds = %54
  %59 = load i32, i32* %2, align 4
  %60 = load i32, i32* %6, align 4
  %61 = icmp ne i32 %59, %60
  br i1 %61, label %62, label %140

62:                                               ; preds = %58
  %63 = load i32, i32* %3, align 4
  %64 = load i32, i32* %4, align 4
  %65 = icmp ne i32 %63, %64
  br i1 %65, label %66, label %140

66:                                               ; preds = %62
  %67 = load i32, i32* %3, align 4
  %68 = load i32, i32* %5, align 4
  %69 = icmp ne i32 %67, %68
  br i1 %69, label %70, label %140

70:                                               ; preds = %66
  %71 = load i32, i32* %3, align 4
  %72 = load i32, i32* %6, align 4
  %73 = icmp ne i32 %71, %72
  br i1 %73, label %74, label %140

74:                                               ; preds = %70
  %75 = load i32, i32* %4, align 4
  %76 = load i32, i32* %5, align 4
  %77 = icmp ne i32 %75, %76
  br i1 %77, label %78, label %140

78:                                               ; preds = %74
  %79 = load i32, i32* %4, align 4
  %80 = load i32, i32* %6, align 4
  %81 = icmp ne i32 %79, %80
  br i1 %81, label %82, label %140

82:                                               ; preds = %78
  %83 = load i32, i32* %5, align 4
  %84 = load i32, i32* %6, align 4
  %85 = icmp ne i32 %83, %84
  br i1 %85, label %86, label %140

86:                                               ; preds = %82
  %87 = load i32, i32* %2, align 4
  %88 = load i32, i32* %7, align 4
  %89 = mul nsw i32 %87, %88
  %90 = load i32, i32* %3, align 4
  %91 = load i32, i32* %8, align 4
  %92 = mul nsw i32 %90, %91
  %93 = add nsw i32 %89, %92
  %94 = load i32, i32* %4, align 4
  %95 = load i32, i32* %9, align 4
  %96 = mul nsw i32 %94, %95
  %97 = add nsw i32 %93, %96
  %98 = load i32, i32* %5, align 4
  %99 = load i32, i32* %10, align 4
  %100 = mul nsw i32 %98, %99
  %101 = add nsw i32 %97, %100
  %102 = load i32, i32* %6, align 4
  %103 = load i32, i32* %11, align 4
  %104 = mul nsw i32 %102, %103
  %105 = add nsw i32 %101, %104
  %106 = icmp eq i32 %105, 3
  br i1 %106, label %107, label %140

107:                                              ; preds = %86
  %108 = load i32, i32* %7, align 4
  %109 = load i32, i32* %8, align 4
  %110 = add nsw i32 %108, %109
  %111 = load i32, i32* %9, align 4
  %112 = add nsw i32 %110, %111
  %113 = load i32, i32* %10, align 4
  %114 = add nsw i32 %112, %113
  %115 = load i32, i32* %11, align 4
  %116 = add nsw i32 %114, %115
  %117 = icmp eq i32 %116, 2
  br i1 %117, label %118, label %140

118:                                              ; preds = %107
  %119 = load i32, i32* %6, align 4
  %120 = icmp ne i32 %119, 2
  br i1 %120, label %121, label %140

121:                                              ; preds = %118
  %122 = load i32, i32* %6, align 4
  %123 = icmp ne i32 %122, 3
  br i1 %123, label %124, label %140

124:                                              ; preds = %121
  %125 = load i32, i32* %2, align 4
  %126 = call dereferenceable(272) %"class.std::basic_ostream"* @_ZNSolsEi(%"class.std::basic_ostream"* @_ZSt4cout, i32 %125)
  %127 = call dereferenceable(272) %"class.std::basic_ostream"* @_ZStlsISt11char_traitsIcEERSt13basic_ostreamIcT_ES5_PKc(%"class.std::basic_ostream"* dereferenceable(272) %126, i8* getelementptr inbounds ([2 x i8], [2 x i8]* @.str, i64 0, i64 0))
  %128 = load i32, i32* %3, align 4
  %129 = call dereferenceable(272) %"class.std::basic_ostream"* @_ZNSolsEi(%"class.std::basic_ostream"* %127, i32 %128)
  %130 = call dereferenceable(272) %"class.std::basic_ostream"* @_ZStlsISt11char_traitsIcEERSt13basic_ostreamIcT_ES5_PKc(%"class.std::basic_ostream"* dereferenceable(272) %129, i8* getelementptr inbounds ([2 x i8], [2 x i8]* @.str, i64 0, i64 0))
  %131 = load i32, i32* %4, align 4
  %132 = call dereferenceable(272) %"class.std::basic_ostream"* @_ZNSolsEi(%"class.std::basic_ostream"* %130, i32 %131)
  %133 = call dereferenceable(272) %"class.std::basic_ostream"* @_ZStlsISt11char_traitsIcEERSt13basic_ostreamIcT_ES5_PKc(%"class.std::basic_ostream"* dereferenceable(272) %132, i8* getelementptr inbounds ([2 x i8], [2 x i8]* @.str, i64 0, i64 0))
  %134 = load i32, i32* %5, align 4
  %135 = call dereferenceable(272) %"class.std::basic_ostream"* @_ZNSolsEi(%"class.std::basic_ostream"* %133, i32 %134)
  %136 = call dereferenceable(272) %"class.std::basic_ostream"* @_ZStlsISt11char_traitsIcEERSt13basic_ostreamIcT_ES5_PKc(%"class.std::basic_ostream"* dereferenceable(272) %135, i8* getelementptr inbounds ([2 x i8], [2 x i8]* @.str, i64 0, i64 0))
  %137 = load i32, i32* %6, align 4
  %138 = call dereferenceable(272) %"class.std::basic_ostream"* @_ZNSolsEi(%"class.std::basic_ostream"* %136, i32 %137)
  %139 = call dereferenceable(272) %"class.std::basic_ostream"* @_ZNSolsEPFRSoS_E(%"class.std::basic_ostream"* %138, %"class.std::basic_ostream"* (%"class.std::basic_ostream"*)* @_ZSt4endlIcSt11char_traitsIcEERSt13basic_ostreamIT_T0_ES6_)
  br label %140

140:                                              ; preds = %124, %121, %118, %107, %86, %82, %78, %74, %70, %66, %62, %58, %54, %50, %31
  br label %141

141:                                              ; preds = %140
  %142 = load i32, i32* %6, align 4
  %143 = add nsw i32 %142, 1
  store i32 %143, i32* %6, align 4
  br label %28

144:                                              ; preds = %28
  br label %145

145:                                              ; preds = %144
  %146 = load i32, i32* %5, align 4
  %147 = add nsw i32 %146, 1
  store i32 %147, i32* %5, align 4
  br label %24

148:                                              ; preds = %24
  br label %149

149:                                              ; preds = %148
  %150 = load i32, i32* %4, align 4
  %151 = add nsw i32 %150, 1
  store i32 %151, i32* %4, align 4
  br label %20

152:                                              ; preds = %20
  br label %153

153:                                              ; preds = %152
  %154 = load i32, i32* %3, align 4
  %155 = add nsw i32 %154, 1
  store i32 %155, i32* %3, align 4
  br label %16

156:                                              ; preds = %16
  br label %157

157:                                              ; preds = %156
  %158 = load i32, i32* %2, align 4
  %159 = add nsw i32 %158, 1
  store i32 %159, i32* %2, align 4
  br label %12

160:                                              ; preds = %12
  ret i32 0
}

declare dso_local dereferenceable(272) %"class.std::basic_ostream"* @_ZStlsISt11char_traitsIcEERSt13basic_ostreamIcT_ES5_PKc(%"class.std::basic_ostream"* dereferenceable(272), i8*) #1

declare dso_local dereferenceable(272) %"class.std::basic_ostream"* @_ZNSolsEi(%"class.std::basic_ostream"*, i32) #1

declare dso_local dereferenceable(272) %"class.std::basic_ostream"* @_ZNSolsEPFRSoS_E(%"class.std::basic_ostream"*, %"class.std::basic_ostream"* (%"class.std::basic_ostream"*)*) #1

declare dso_local dereferenceable(272) %"class.std::basic_ostream"* @_ZSt4endlIcSt11char_traitsIcEERSt13basic_ostreamIT_T0_ES6_(%"class.std::basic_ostream"* dereferenceable(272)) #1

; Function Attrs: noinline uwtable
define internal void @_GLOBAL__sub_I_1059.cpp() #0 section ".text.startup" {
  call void @__cxx_global_var_init()
  ret void
}


!llvm.module.flags = !{!0}
!llvm.ident = !{!1}

!0 = !{i32 1, !"wchar_size", i32 4}
!1 = !{!"clang version 10.0.0-4ubuntu1 "}
