; ModuleID = 'source-C-CXX/40/1059.cpp'
source_filename = "source-C-CXX/40/1059.cpp"
target datalayout = "e-m:e-p270:32:32-p271:32:32-p272:64:64-i64:64-f80:128-n8:16:32:64-S128"
target triple = "x86_64-pc-linux-gnu"

%"class.std::ios_base::Init" = type { i8 }
%"class.std::basic_ostream" = type { i32 (...)**, %"class.std::basic_ios" }
%"class.std::basic_ios" = type { %"class.std::ios_base", %"class.std::basic_ostream"*, i8, i8, %"class.std::basic_streambuf"*, %"class.std::ctype"*, %"class.std::num_put"*, %"class.std::num_get"* }
%"class.std::ios_base" = type { i32 (...)**, i64, i64, i32, i32, i32, %"struct.std::ios_base::_Callback_list"*, %"struct.std::ios_base::_Words", [8 x %"struct.std::ios_base::_Words"], i32, %"struct.std::ios_base::_Words"*, %"class.std::locale" }
%"struct.std::ios_base::_Callback_list" = type { %"struct.std::ios_base::_Callback_list"*, void (i32, %"class.std::ios_base"*, i32)*, i32, i32 }
%"struct.std::ios_base::_Words" = type { i8*, i64 }
%"class.std::locale" = type { %"class.std::locale::_Impl"* }
%"class.std::locale::_Impl" = type { i32, %"class.std::locale::facet"**, i64, %"class.std::locale::facet"**, i8** }
%"class.std::locale::facet" = type <{ i32 (...)**, i32, [4 x i8] }>
%"class.std::basic_streambuf" = type { i32 (...)**, i8*, i8*, i8*, i8*, i8*, i8*, %"class.std::locale" }
%"class.std::ctype" = type <{ %"class.std::locale::facet.base", [4 x i8], %struct.__locale_struct*, i8, [7 x i8], i32*, i32*, i16*, i8, [256 x i8], [256 x i8], i8, [6 x i8] }>
%"class.std::locale::facet.base" = type <{ i32 (...)**, i32 }>
%struct.__locale_struct = type { [13 x %struct.__locale_data*], i16*, i32*, i32*, [13 x i8*] }
%struct.__locale_data = type opaque
%"class.std::num_put" = type { %"class.std::locale::facet.base", [4 x i8] }
%"class.std::num_get" = type { %"class.std::locale::facet.base", [4 x i8] }

@_ZStL8__ioinit = internal global %"class.std::ios_base::Init" zeroinitializer, align 1
@__dso_handle = external hidden global i8
@_ZSt4cout = external global %"class.std::basic_ostream", align 8
@.str = private unnamed_addr constant [2 x i8] c" \00", align 1
@llvm.global_ctors = appending global [1 x { i32, void ()*, i8* }] [{ i32, void ()*, i8* } { i32 65535, void ()* @_GLOBAL__sub_I_1059.cpp, i8* null }]

declare void @_ZNSt8ios_base4InitC1Ev(%"class.std::ios_base::Init"* nonnull align 1 dereferenceable(1)) unnamed_addr #0

; Function Attrs: nounwind
declare void @_ZNSt8ios_base4InitD1Ev(%"class.std::ios_base::Init"* nonnull align 1 dereferenceable(1)) unnamed_addr #1

; Function Attrs: nofree nounwind
declare i32 @__cxa_atexit(void (i8*)*, i8*, i8*) local_unnamed_addr #2

; Function Attrs: mustprogress norecurse sspstrong uwtable
define dso_local i32 @main() local_unnamed_addr #3 {
  br label %1

1:                                                ; preds = %0, %109
  %2 = phi i32 [ 1, %0 ], [ %110, %109 ]
  %3 = icmp eq i32 %2, 5
  %4 = zext i1 %3 to i32
  br label %5

5:                                                ; preds = %1, %106
  %6 = phi i32 [ 1, %1 ], [ %107, %106 ]
  %7 = icmp eq i32 %6, 2
  %8 = zext i1 %7 to i32
  %9 = icmp eq i32 %2, %6
  %10 = select i1 %7, i32 2, i32 0
  %11 = add nuw nsw i32 %8, %4
  br i1 %9, label %106, label %12

12:                                               ; preds = %5, %103
  %13 = phi i32 [ %104, %103 ], [ 1, %5 ]
  %14 = icmp ne i32 %13, 1
  %15 = zext i1 %14 to i32
  %16 = icmp eq i32 %2, %13
  %17 = icmp eq i32 %6, %13
  %18 = select i1 %3, i32 %13, i32 0
  %19 = add nuw i32 %18, %10
  %20 = add nuw nsw i32 %11, %15
  %21 = or i1 %16, %17
  br i1 %21, label %103, label %22

22:                                               ; preds = %12, %100
  %23 = phi i32 [ %101, %100 ], [ 1, %12 ]
  %24 = icmp eq i32 %23, 1
  %25 = zext i1 %24 to i32
  %26 = icmp eq i32 %2, %23
  %27 = icmp eq i32 %6, %23
  %28 = icmp eq i32 %13, %23
  %29 = select i1 %14, i32 %23, i32 0
  %30 = add i32 %19, %29
  %31 = add nuw nsw i32 %20, %25
  %32 = or i1 %28, %27
  %33 = or i1 %32, %26
  br i1 %33, label %100, label %34

34:                                               ; preds = %22, %97
  %35 = phi i32 [ %98, %97 ], [ 1, %22 ]
  %36 = icmp eq i32 %35, 1
  %37 = zext i1 %36 to i32
  %38 = icmp eq i32 %2, %35
  %39 = icmp eq i32 %6, %35
  %40 = select i1 %38, i1 true, i1 %39
  %41 = icmp eq i32 %13, %35
  %42 = select i1 %40, i1 true, i1 %41
  %43 = icmp eq i32 %23, %35
  %44 = select i1 %42, i1 true, i1 %43
  br i1 %44, label %97, label %45

45:                                               ; preds = %34
  %46 = select i1 %36, i32 %2, i32 0
  %47 = select i1 %24, i32 %35, i32 0
  %48 = add i32 %30, %47
  %49 = add i32 %48, %46
  %50 = icmp eq i32 %49, 3
  br i1 %50, label %51, label %97

51:                                               ; preds = %45
  %52 = add nuw nsw i32 %31, %37
  %53 = freeze i32 %52
  %54 = icmp ne i32 %53, 2
  %55 = and i32 %35, 2147483646
  %56 = icmp eq i32 %55, 2
  %57 = select i1 %54, i1 true, i1 %56
  br i1 %57, label %97, label %58

58:                                               ; preds = %51
  %59 = tail call nonnull align 8 dereferenceable(8) %"class.std::basic_ostream"* @_ZNSolsEi(%"class.std::basic_ostream"* nonnull align 8 dereferenceable(8) @_ZSt4cout, i32 %2)
  %60 = tail call nonnull align 8 dereferenceable(8) %"class.std::basic_ostream"* @_ZSt16__ostream_insertIcSt11char_traitsIcEERSt13basic_ostreamIT_T0_ES6_PKS3_l(%"class.std::basic_ostream"* nonnull align 8 dereferenceable(8) %59, i8* nonnull getelementptr inbounds ([2 x i8], [2 x i8]* @.str, i64 0, i64 0), i64 1)
  %61 = tail call nonnull align 8 dereferenceable(8) %"class.std::basic_ostream"* @_ZNSolsEi(%"class.std::basic_ostream"* nonnull align 8 dereferenceable(8) %59, i32 %6)
  %62 = tail call nonnull align 8 dereferenceable(8) %"class.std::basic_ostream"* @_ZSt16__ostream_insertIcSt11char_traitsIcEERSt13basic_ostreamIT_T0_ES6_PKS3_l(%"class.std::basic_ostream"* nonnull align 8 dereferenceable(8) %61, i8* nonnull getelementptr inbounds ([2 x i8], [2 x i8]* @.str, i64 0, i64 0), i64 1)
  %63 = tail call nonnull align 8 dereferenceable(8) %"class.std::basic_ostream"* @_ZNSolsEi(%"class.std::basic_ostream"* nonnull align 8 dereferenceable(8) %61, i32 %13)
  %64 = tail call nonnull align 8 dereferenceable(8) %"class.std::basic_ostream"* @_ZSt16__ostream_insertIcSt11char_traitsIcEERSt13basic_ostreamIT_T0_ES6_PKS3_l(%"class.std::basic_ostream"* nonnull align 8 dereferenceable(8) %63, i8* nonnull getelementptr inbounds ([2 x i8], [2 x i8]* @.str, i64 0, i64 0), i64 1)
  %65 = tail call nonnull align 8 dereferenceable(8) %"class.std::basic_ostream"* @_ZNSolsEi(%"class.std::basic_ostream"* nonnull align 8 dereferenceable(8) %63, i32 %23)
  %66 = tail call nonnull align 8 dereferenceable(8) %"class.std::basic_ostream"* @_ZSt16__ostream_insertIcSt11char_traitsIcEERSt13basic_ostreamIT_T0_ES6_PKS3_l(%"class.std::basic_ostream"* nonnull align 8 dereferenceable(8) %65, i8* nonnull getelementptr inbounds ([2 x i8], [2 x i8]* @.str, i64 0, i64 0), i64 1)
  %67 = tail call nonnull align 8 dereferenceable(8) %"class.std::basic_ostream"* @_ZNSolsEi(%"class.std::basic_ostream"* nonnull align 8 dereferenceable(8) %65, i32 %35)
  %68 = bitcast %"class.std::basic_ostream"* %67 to i8**
  %69 = load i8*, i8** %68, align 8, !tbaa !5
  %70 = getelementptr i8, i8* %69, i64 -24
  %71 = bitcast i8* %70 to i64*
  %72 = load i64, i64* %71, align 8
  %73 = bitcast %"class.std::basic_ostream"* %67 to i8*
  %74 = add nsw i64 %72, 240
  %75 = getelementptr inbounds i8, i8* %73, i64 %74
  %76 = bitcast i8* %75 to %"class.std::ctype"**
  %77 = load %"class.std::ctype"*, %"class.std::ctype"** %76, align 8, !tbaa !8
  %78 = icmp eq %"class.std::ctype"* %77, null
  br i1 %78, label %79, label %80

79:                                               ; preds = %58
  tail call void @_ZSt16__throw_bad_castv() #6
  unreachable

80:                                               ; preds = %58
  %81 = getelementptr inbounds %"class.std::ctype", %"class.std::ctype"* %77, i64 0, i32 8
  %82 = load i8, i8* %81, align 8, !tbaa !13
  %83 = icmp eq i8 %82, 0
  br i1 %83, label %87, label %84

84:                                               ; preds = %80
  %85 = getelementptr inbounds %"class.std::ctype", %"class.std::ctype"* %77, i64 0, i32 9, i64 10
  %86 = load i8, i8* %85, align 1, !tbaa !15
  br label %93

87:                                               ; preds = %80
  tail call void @_ZNKSt5ctypeIcE13_M_widen_initEv(%"class.std::ctype"* nonnull align 8 dereferenceable(570) %77)
  %88 = bitcast %"class.std::ctype"* %77 to i8 (%"class.std::ctype"*, i8)***
  %89 = load i8 (%"class.std::ctype"*, i8)**, i8 (%"class.std::ctype"*, i8)*** %88, align 8, !tbaa !5
  %90 = getelementptr inbounds i8 (%"class.std::ctype"*, i8)*, i8 (%"class.std::ctype"*, i8)** %89, i64 6
  %91 = load i8 (%"class.std::ctype"*, i8)*, i8 (%"class.std::ctype"*, i8)** %90, align 8
  %92 = tail call signext i8 %91(%"class.std::ctype"* nonnull align 8 dereferenceable(570) %77, i8 signext 10)
  br label %93

93:                                               ; preds = %84, %87
  %94 = phi i8 [ %86, %84 ], [ %92, %87 ]
  %95 = tail call nonnull align 8 dereferenceable(8) %"class.std::basic_ostream"* @_ZNSo3putEc(%"class.std::basic_ostream"* nonnull align 8 dereferenceable(8) %67, i8 signext %94)
  %96 = tail call nonnull align 8 dereferenceable(8) %"class.std::basic_ostream"* @_ZNSo5flushEv(%"class.std::basic_ostream"* nonnull align 8 dereferenceable(8) %95)
  br label %97

97:                                               ; preds = %51, %34, %45, %93
  %98 = add nuw nsw i32 %35, 1
  %99 = icmp eq i32 %98, 6
  br i1 %99, label %100, label %34, !llvm.loop !16

100:                                              ; preds = %97, %22
  %101 = add nuw nsw i32 %23, 1
  %102 = icmp eq i32 %101, 6
  br i1 %102, label %103, label %22, !llvm.loop !18

103:                                              ; preds = %100, %12
  %104 = add nuw nsw i32 %13, 1
  %105 = icmp eq i32 %104, 6
  br i1 %105, label %106, label %12, !llvm.loop !19

106:                                              ; preds = %103, %5
  %107 = add nuw nsw i32 %6, 1
  %108 = icmp eq i32 %107, 6
  br i1 %108, label %109, label %5, !llvm.loop !20

109:                                              ; preds = %106
  %110 = add nuw nsw i32 %2, 1
  %111 = icmp eq i32 %110, 6
  br i1 %111, label %112, label %1, !llvm.loop !21

112:                                              ; preds = %109
  ret i32 0
}

declare nonnull align 8 dereferenceable(8) %"class.std::basic_ostream"* @_ZNSolsEi(%"class.std::basic_ostream"* nonnull align 8 dereferenceable(8), i32) local_unnamed_addr #0

declare nonnull align 8 dereferenceable(8) %"class.std::basic_ostream"* @_ZSt16__ostream_insertIcSt11char_traitsIcEERSt13basic_ostreamIT_T0_ES6_PKS3_l(%"class.std::basic_ostream"* nonnull align 8 dereferenceable(8), i8*, i64) local_unnamed_addr #0

declare nonnull align 8 dereferenceable(8) %"class.std::basic_ostream"* @_ZNSo3putEc(%"class.std::basic_ostream"* nonnull align 8 dereferenceable(8), i8 signext) local_unnamed_addr #0

declare nonnull align 8 dereferenceable(8) %"class.std::basic_ostream"* @_ZNSo5flushEv(%"class.std::basic_ostream"* nonnull align 8 dereferenceable(8)) local_unnamed_addr #0

; Function Attrs: noreturn
declare void @_ZSt16__throw_bad_castv() local_unnamed_addr #4

declare void @_ZNKSt5ctypeIcE13_M_widen_initEv(%"class.std::ctype"* nonnull align 8 dereferenceable(570)) local_unnamed_addr #0

; Function Attrs: sspstrong uwtable
define internal void @_GLOBAL__sub_I_1059.cpp() #5 section ".text.startup" {
  tail call void @_ZNSt8ios_base4InitC1Ev(%"class.std::ios_base::Init"* nonnull align 1 dereferenceable(1) @_ZStL8__ioinit)
  %1 = tail call i32 @__cxa_atexit(void (i8*)* bitcast (void (%"class.std::ios_base::Init"*)* @_ZNSt8ios_base4InitD1Ev to void (i8*)*), i8* getelementptr inbounds (%"class.std::ios_base::Init", %"class.std::ios_base::Init"* @_ZStL8__ioinit, i64 0, i32 0), i8* nonnull @__dso_handle) #7
  ret void
}


!llvm.module.flags = !{!0, !1, !2, !3}
!llvm.ident = !{!4}

!0 = !{i32 1, !"wchar_size", i32 4}
!1 = !{i32 7, !"PIC Level", i32 2}
!2 = !{i32 7, !"PIE Level", i32 2}
!3 = !{i32 7, !"uwtable", i32 1}
!4 = !{!"clang version 13.0.0"}
!5 = !{!6, !6, i64 0}
!6 = !{!"vtable pointer", !7, i64 0}
!7 = !{!"Simple C++ TBAA"}
!8 = !{!9, !10, i64 240}
!9 = !{!"_ZTSSt9basic_iosIcSt11char_traitsIcEE", !10, i64 216, !11, i64 224, !12, i64 225, !10, i64 232, !10, i64 240, !10, i64 248, !10, i64 256}
!10 = !{!"any pointer", !11, i64 0}
!11 = !{!"omnipotent char", !7, i64 0}
!12 = !{!"bool", !11, i64 0}
!13 = !{!14, !11, i64 56}
!14 = !{!"_ZTSSt5ctypeIcE", !10, i64 16, !12, i64 24, !10, i64 32, !10, i64 40, !10, i64 48, !11, i64 56, !11, i64 57, !11, i64 313, !11, i64 569}
!15 = !{!11, !11, i64 0}
!16 = distinct !{!16, !17}
!17 = !{!"llvm.loop.mustprogress"}
!18 = distinct !{!18, !17}
!19 = distinct !{!19, !17}
!20 = distinct !{!20, !17}
!21 = distinct !{!21, !17}
